target datalayout = "e-m:e-p270:32:32-p271:32:32-p272:64:64-i64:64-f80:128-n8:16:32:64-S128"
target triple = "x86_64-pc-linux-gnu"

%struct.student = type { [1000 x i8], i32, i32, i8, i8, i32, i32, %struct.student* }

@.str = private unnamed_addr constant [18 x i8] c"%s %d %d %c %c %d\00", align 1
@num = common dso_local global i32 0, align 4
@.str.1 = private unnamed_addr constant [3 x i8] c"%d\00", align 1
@.str.2 = private unnamed_addr constant [10 x i8] c"%s\0A%d\0A%d\0A\00", align 1

; Function Attrs: noinline nounwind uwtable
define dso_local %struct.student* @creat() #0 {
  %1 = alloca %struct.student*, align 8
  %2 = alloca %struct.student*, align 8
  %3 = alloca %struct.student*, align 8
  %4 = alloca i32, align 4
  %5 = alloca i32, align 4
  store i32 0, i32* %5, align 4
  %6 = call noalias i8* @malloc(i64 100) #3
  %7 = bitcast i8* %6 to %struct.student*
  store %struct.student* %7, %struct.student** %3, align 8
  store %struct.student* %7, %struct.student** %2, align 8
  %8 = load %struct.student*, %struct.student** %2, align 8
  %9 = getelementptr inbounds %struct.student, %struct.student* %8, i32 0, i32 0
  %10 = getelementptr inbounds [1000 x i8], [1000 x i8]* %9, i64 0, i64 0
  %11 = load %struct.student*, %struct.student** %2, align 8
  %12 = getelementptr inbounds %struct.student, %struct.student* %11, i32 0, i32 1
  %13 = load %struct.student*, %struct.student** %2, align 8
  %14 = getelementptr inbounds %struct.student, %struct.student* %13, i32 0, i32 2
  %15 = load %struct.student*, %struct.student** %2, align 8
  %16 = getelementptr inbounds %struct.student, %struct.student* %15, i32 0, i32 3
  %17 = load %struct.student*, %struct.student** %2, align 8
  %18 = getelementptr inbounds %struct.student, %struct.student* %17, i32 0, i32 4
  %19 = load %struct.student*, %struct.student** %2, align 8
  %20 = getelementptr inbounds %struct.student, %struct.student* %19, i32 0, i32 5
  %21 = call i32 (i8*, ...) @__isoc99_scanf(i8* getelementptr inbounds ([18 x i8], [18 x i8]* @.str, i64 0, i64 0), i8* %10, i32* %12, i32* %14, i8* %16, i8* %18, i32* %20)
  %22 = load %struct.student*, %struct.student** %2, align 8
  %23 = getelementptr inbounds %struct.student, %struct.student* %22, i32 0, i32 6
  store i32 0, i32* %23, align 8
  store %struct.student* null, %struct.student** %1, align 8
  br label %24

24:                                               ; preds = %40, %0
  %25 = load i32, i32* %5, align 4
  %26 = load i32, i32* @num, align 4
  %27 = sub nsw i32 %26, 1
  %28 = icmp slt i32 %25, %27
  br i1 %28, label %29, label %60

29:                                               ; preds = %24
  %30 = load i32, i32* %5, align 4
  %31 = add nsw i32 %30, 1
  store i32 %31, i32* %5, align 4
  %32 = load i32, i32* %5, align 4
  %33 = icmp eq i32 %32, 1
  br i1 %33, label %34, label %36

34:                                               ; preds = %29
  %35 = load %struct.student*, %struct.student** %2, align 8
  store %struct.student* %35, %struct.student** %1, align 8
  br label %40

36:                                               ; preds = %29
  %37 = load %struct.student*, %struct.student** %2, align 8
  %38 = load %struct.student*, %struct.student** %3, align 8
  %39 = getelementptr inbounds %struct.student, %struct.student* %38, i32 0, i32 7
  store %struct.student* %37, %struct.student** %39, align 8
  br label %40

40:                                               ; preds = %36, %34
  %41 = load %struct.student*, %struct.student** %2, align 8
  store %struct.student* %41, %struct.student** %3, align 8
  %42 = call noalias i8* @malloc(i64 100) #3
  %43 = bitcast i8* %42 to %struct.student*
  store %struct.student* %43, %struct.student** %2, align 8
  %44 = load %struct.student*, %struct.student** %2, align 8
  %45 = getelementptr inbounds %struct.student, %struct.student* %44, i32 0, i32 0
  %46 = getelementptr inbounds [1000 x i8], [1000 x i8]* %45, i64 0, i64 0
  %47 = load %struct.student*, %struct.student** %2, align 8
  %48 = getelementptr inbounds %struct.student, %struct.student* %47, i32 0, i32 1
  %49 = load %struct.student*, %struct.student** %2, align 8
  %50 = getelementptr inbounds %struct.student, %struct.student* %49, i32 0, i32 2
  %51 = load %struct.student*, %struct.student** %2, align 8
  %52 = getelementptr inbounds %struct.student, %struct.student* %51, i32 0, i32 3
  %53 = load %struct.student*, %struct.student** %2, align 8
  %54 = getelementptr inbounds %struct.student, %struct.student* %53, i32 0, i32 4
  %55 = load %struct.student*, %struct.student** %2, align 8
  %56 = getelementptr inbounds %struct.student, %struct.student* %55, i32 0, i32 5
  %57 = call i32 (i8*, ...) @__isoc99_scanf(i8* getelementptr inbounds ([18 x i8], [18 x i8]* @.str, i64 0, i64 0), i8* %46, i32* %48, i32* %50, i8* %52, i8* %54, i32* %56)
  %58 = load %struct.student*, %struct.student** %2, align 8
  %59 = getelementptr inbounds %struct.student, %struct.student* %58, i32 0, i32 6
  store i32 0, i32* %59, align 8
  br label %24

60:                                               ; preds = %24
  %61 = load %struct.student*, %struct.student** %2, align 8
  %62 = load %struct.student*, %struct.student** %3, align 8
  %63 = getelementptr inbounds %struct.student, %struct.student* %62, i32 0, i32 7
  store %struct.student* %61, %struct.student** %63, align 8
  %64 = load %struct.student*, %struct.student** %2, align 8
  %65 = getelementptr inbounds %struct.student, %struct.student* %64, i32 0, i32 7
  store %struct.student* null, %struct.student** %65, align 8
  %66 = load %struct.student*, %struct.student** %1, align 8
  ret %struct.student* %66
}

; Function Attrs: noinline nounwind uwtable
define dso_local void @main() #0 {
  %1 = alloca %struct.student*, align 8
  %2 = alloca %struct.student*, align 8
  %3 = alloca %struct.student*, align 8
  %4 = alloca %struct.student*, align 8
  %5 = alloca %struct.student*, align 8
  %6 = alloca i32, align 4
  store i32 0, i32* %6, align 4
  %7 = call i32 (i8*, ...) @__isoc99_scanf(i8* getelementptr inbounds ([3 x i8], [3 x i8]* @.str.1, i64 0, i64 0), i32* @num)
  %8 = call %struct.student* @creat()
  store %struct.student* %8, %struct.student** %1, align 8
  %9 = load %struct.student*, %struct.student** %1, align 8
  store %struct.student* %9, %struct.student** %3, align 8
  store %struct.student* %9, %struct.student** %2, align 8
  store %struct.student* %9, %struct.student** %4, align 8
  br label %10

10:                                               ; preds = %96, %0
  %11 = load %struct.student*, %struct.student** %4, align 8
  %12 = icmp ne %struct.student* %11, null
  br i1 %12, label %13, label %100

13:                                               ; preds = %10
  %14 = load %struct.student*, %struct.student** %4, align 8
  %15 = getelementptr inbounds %struct.student, %struct.student* %14, i32 0, i32 2
  %16 = load i32, i32* %15, align 4
  %17 = icmp sgt i32 %16, 80
  br i1 %17, label %18, label %31

18:                                               ; preds = %13
  %19 = load %struct.student*, %struct.student** %4, align 8
  %20 = getelementptr inbounds %struct.student, %struct.student* %19, i32 0, i32 3
  %21 = load i8, i8* %20, align 8
  %22 = sext i8 %21 to i32
  %23 = icmp eq i32 %22, 89
  br i1 %23, label %24, label %31

24:                                               ; preds = %18
  %25 = load %struct.student*, %struct.student** %4, align 8
  %26 = getelementptr inbounds %struct.student, %struct.student* %25, i32 0, i32 6
  %27 = load i32, i32* %26, align 8
  %28 = add nsw i32 %27, 850
  %29 = load %struct.student*, %struct.student** %4, align 8
  %30 = getelementptr inbounds %struct.student, %struct.student* %29, i32 0, i32 6
  store i32 %28, i32* %30, align 8
  br label %31

31:                                               ; preds = %24, %18, %13
  %32 = load %struct.student*, %struct.student** %4, align 8
  %33 = getelementptr inbounds %struct.student, %struct.student* %32, i32 0, i32 1
  %34 = load i32, i32* %33, align 8
  %35 = icmp sgt i32 %34, 80
  br i1 %35, label %36, label %48

36:                                               ; preds = %31
  %37 = load %struct.student*, %struct.student** %4, align 8
  %38 = getelementptr inbounds %struct.student, %struct.student* %37, i32 0, i32 5
  %39 = load i32, i32* %38, align 4
  %40 = icmp sge i32 %39, 1
  br i1 %40, label %41, label %48

41:                                               ; preds = %36
  %42 = load %struct.student*, %struct.student** %4, align 8
  %43 = getelementptr inbounds %struct.student, %struct.student* %42, i32 0, i32 6
  %44 = load i32, i32* %43, align 8
  %45 = add nsw i32 %44, 8000
  %46 = load %struct.student*, %struct.student** %4, align 8
  %47 = getelementptr inbounds %struct.student, %struct.student* %46, i32 0, i32 6
  store i32 %45, i32* %47, align 8
  br label %48

48:                                               ; preds = %41, %36, %31
  %49 = load %struct.student*, %struct.student** %4, align 8
  %50 = getelementptr inbounds %struct.student, %struct.student* %49, i32 0, i32 1
  %51 = load i32, i32* %50, align 8
  %52 = icmp sgt i32 %51, 85
  br i1 %52, label %53, label %65

53:                                               ; preds = %48
  %54 = load %struct.student*, %struct.student** %4, align 8
  %55 = getelementptr inbounds %struct.student, %struct.student* %54, i32 0, i32 2
  %56 = load i32, i32* %55, align 4
  %57 = icmp sgt i32 %56, 80
  br i1 %57, label %58, label %65

58:                                               ; preds = %53
  %59 = load %struct.student*, %struct.student** %4, align 8
  %60 = getelementptr inbounds %struct.student, %struct.student* %59, i32 0, i32 6
  %61 = load i32, i32* %60, align 8
  %62 = add nsw i32 %61, 4000
  %63 = load %struct.student*, %struct.student** %4, align 8
  %64 = getelementptr inbounds %struct.student, %struct.student* %63, i32 0, i32 6
  store i32 %62, i32* %64, align 8
  br label %65

65:                                               ; preds = %58, %53, %48
  %66 = load %struct.student*, %struct.student** %4, align 8
  %67 = getelementptr inbounds %struct.student, %struct.student* %66, i32 0, i32 1
  %68 = load i32, i32* %67, align 8
  %69 = icmp sgt i32 %68, 90
  br i1 %69, label %70, label %77

70:                                               ; preds = %65
  %71 = load %struct.student*, %struct.student** %4, align 8
  %72 = getelementptr inbounds %struct.student, %struct.student* %71, i32 0, i32 6
  %73 = load i32, i32* %72, align 8
  %74 = add nsw i32 %73, 2000
  %75 = load %struct.student*, %struct.student** %4, align 8
  %76 = getelementptr inbounds %struct.student, %struct.student* %75, i32 0, i32 6
  store i32 %74, i32* %76, align 8
  br label %77

77:                                               ; preds = %70, %65
  %78 = load %struct.student*, %struct.student** %4, align 8
  %79 = getelementptr inbounds %struct.student, %struct.student* %78, i32 0, i32 1
  %80 = load i32, i32* %79, align 8
  %81 = icmp sgt i32 %80, 85
  br i1 %81, label %82, label %95

82:                                               ; preds = %77
  %83 = load %struct.student*, %struct.student** %4, align 8
  %84 = getelementptr inbounds %struct.student, %struct.student* %83, i32 0, i32 4
  %85 = load i8, i8* %84, align 1
  %86 = sext i8 %85 to i32
  %87 = icmp eq i32 %86, 89
  br i1 %87, label %88, label %95

88:                                               ; preds = %82
  %89 = load %struct.student*, %struct.student** %4, align 8
  %90 = getelementptr inbounds %struct.student, %struct.student* %89, i32 0, i32 6
  %91 = load i32, i32* %90, align 8
  %92 = add nsw i32 %91, 1000
  %93 = load %struct.student*, %struct.student** %4, align 8
  %94 = getelementptr inbounds %struct.student, %struct.student* %93, i32 0, i32 6
  store i32 %92, i32* %94, align 8
  br label %95

95:                                               ; preds = %88, %82, %77
  br label %96

96:                                               ; preds = %95
  %97 = load %struct.student*, %struct.student** %4, align 8
  %98 = getelementptr inbounds %struct.student, %struct.student* %97, i32 0, i32 7
  %99 = load %struct.student*, %struct.student** %98, align 8
  store %struct.student* %99, %struct.student** %4, align 8
  br label %10

100:                                              ; preds = %10
  %101 = load %struct.student*, %struct.student** %1, align 8
  store %struct.student* %101, %struct.student** %4, align 8
  store %struct.student* %101, %struct.student** %5, align 8
  br label %102

102:                                              ; preds = %121, %100
  %103 = load %struct.student*, %struct.student** %4, align 8
  %104 = icmp ne %struct.student* %103, null
  br i1 %104, label %105, label %125

105:                                              ; preds = %102
  %106 = load %struct.student*, %struct.student** %4, align 8
  %107 = getelementptr inbounds %struct.student, %struct.student* %106, i32 0, i32 6
  %108 = load i32, i32* %107, align 8
  %109 = load %struct.student*, %struct.student** %5, align 8
  %110 = getelementptr inbounds %struct.student, %struct.student* %109, i32 0, i32 6
  %111 = load i32, i32* %110, align 8
  %112 = icmp sgt i32 %108, %111
  br i1 %112, label %113, label %115

113:                                              ; preds = %105
  %114 = load %struct.student*, %struct.student** %4, align 8
  store %struct.student* %114, %struct.student** %5, align 8
  br label %115

115:                                              ; preds = %113, %105
  %116 = load i32, i32* %6, align 4
  %117 = load %struct.student*, %struct.student** %4, align 8
  %118 = getelementptr inbounds %struct.student, %struct.student* %117, i32 0, i32 6
  %119 = load i32, i32* %118, align 8
  %120 = add nsw i32 %116, %119
  store i32 %120, i32* %6, align 4
  br label %121

121:                                              ; preds = %115
  %122 = load %struct.student*, %struct.student** %4, align 8
  %123 = getelementptr inbounds %struct.student, %struct.student* %122, i32 0, i32 7
  %124 = load %struct.student*, %struct.student** %123, align 8
  store %struct.student* %124, %struct.student** %4, align 8
  br label %102

125:                                              ; preds = %102
  %126 = load %struct.student*, %struct.student** %5, align 8
  %127 = getelementptr inbounds %struct.student, %struct.student* %126, i32 0, i32 0
  %128 = getelementptr inbounds [1000 x i8], [1000 x i8]* %127, i64 0, i64 0
  %129 = load %struct.student*, %struct.student** %5, align 8
  %130 = getelementptr inbounds %struct.student, %struct.student* %129, i32 0, i32 6
  %131 = load i32, i32* %130, align 8
  %132 = load i32, i32* %6, align 4
  %133 = call i32 (i8*, ...) @printf(i8* getelementptr inbounds ([10 x i8], [10 x i8]* @.str.2, i64 0, i64 0), i8* %128, i32 %131, i32 %132)
  ret void
}